; Function Attrs: mustprogress uwtable
define void @_ZN6icu_776number4impl15DecimalQuantity12setBcdToZeroEv(ptr noundef nonnull align 8 captures(none) dereferenceable(66) initializes((12, 20), (21, 22), (24, 36), (44, 48)) %0) local_unnamed_addr #1 align 2 {
  %2 = getelementptr inbounds nuw i8, ptr %0, i64 64
  %3 = load i8, ptr %2, align 8, !tbaa !22, !range !24, !noundef !25
  %4 = trunc nuw i8 %3 to i1
  br i1 %4, label %5, label %8

5:                                                ; preds = %1
  %6 = getelementptr inbounds nuw i8, ptr %0, i64 48
  %7 = load ptr, ptr %6, align 8, !tbaa !26
  tail call void @uprv_free_77(ptr noundef %7)
  store i8 0, ptr %2, align 8, !tbaa !22
  br label %8

8:                                                ; preds = %5, %1
  %9 = getelementptr inbounds nuw i8, ptr %0, i64 48
  store i64 0, ptr %9, align 8, !tbaa !26
  %10 = getelementptr inbounds nuw i8, ptr %0, i64 12
  store i32 0, ptr %10, align 4, !tbaa !27
  %11 = getelementptr inbounds nuw i8, ptr %0, i64 16
  store i32 0, ptr %11, align 8, !tbaa !28
  %12 = getelementptr inbounds nuw i8, ptr %0, i64 21
  store i8 0, ptr %12, align 1, !tbaa !29
  %13 = getelementptr inbounds nuw i8, ptr %0, i64 24
  store double 0.000000e+00, ptr %13, align 8, !tbaa !30
  %14 = getelementptr inbounds nuw i8, ptr %0, i64 32
  store i32 0, ptr %14, align 8, !tbaa !31
  %15 = getelementptr inbounds nuw i8, ptr %0, i64 44
  store i32 0, ptr %15, align 4, !tbaa !32
  ret void
}